; Function Attrs: mustprogress uwtable
define hidden void @_ZN4cvc58internal6theory12SharedSolver9sendLemmaENS0_9TrustNodeENS1_8TheoryIdENS1_11InferenceIdE(ptr nocapture noundef nonnull readonly align 8 dereferenceable(976) %this, ptr noundef %trn, i32 noundef %atomsTo, i32 noundef %id) local_unnamed_addr #3 align 2 personality ptr @__gxx_personality_v0 {
entry:
  %agg.tmp = alloca %"class.cvc5::internal::NodeTemplate.47", align 8
  %ref.tmp = alloca %"class.cvc5::internal::NodeTemplate", align 8
  %cmp.not = icmp eq i32 %atomsTo, 14
  br i1 %cmp.not, label %if.end, label %if.then

if.then:                                          ; preds = %entry
  %d_te = getelementptr inbounds i8, ptr %this, i64 16
  %0 = load ptr, ptr %d_te, align 8
  call void @_ZNK4cvc58internal9TrustNode7getNodeEv(ptr nonnull sret(%"class.cvc5::internal::NodeTemplate") align 8 %ref.tmp, ptr noundef nonnull align 8 dereferenceable(24) %trn)
  %1 = load ptr, ptr %ref.tmp, align 8
  store ptr %1, ptr %agg.tmp, align 8
  invoke void @_ZN4cvc58internal12TheoryEngine16ensureLemmaAtomsENS0_12NodeTemplateILb0EEENS0_6theory8TheoryIdE(ptr noundef nonnull align 8 dereferenceable(1448) %0, ptr noundef nonnull %agg.tmp, i32 noundef %atomsTo)
          to label %invoke.cont3 unwind label %lpad2

invoke.cont3:                                     ; preds = %if.then
  %2 = load ptr, ptr %ref.tmp, align 8
  %bf.load.i.i = load i64, ptr %2, align 8
  %3 = and i64 %bf.load.i.i, 1152920405095219200
  %cmp.not.i.i = icmp eq i64 %3, 1152920405095219200
  br i1 %cmp.not.i.i, label %if.end, label %if.then.i.i

if.then.i.i:                                      ; preds = %invoke.cont3
  %bf.value.i.i = add i64 %bf.load.i.i, 1152920405095219200
  %bf.shl.i.i = and i64 %bf.value.i.i, 1152920405095219200
  %bf.clear7.i.i = and i64 %bf.load.i.i, -1152920405095219201
  %bf.set.i.i = or disjoint i64 %bf.shl.i.i, %bf.clear7.i.i
  store i64 %bf.set.i.i, ptr %2, align 8
  %cmp12.i.i = icmp eq i64 %bf.shl.i.i, 0
  br i1 %cmp12.i.i, label %if.then13.i.i, label %if.end

if.then13.i.i:                                    ; preds = %if.then.i.i
  invoke void @_ZN4cvc58internal4expr9NodeValue15markForDeletionEv(ptr noundef nonnull align 8 dereferenceable(16) %2)
          to label %if.end unwind label %terminate.lpad.i

terminate.lpad.i:                                 ; preds = %if.then13.i.i
  %4 = landingpad { ptr, i32 }
          catch ptr null
  %5 = extractvalue { ptr, i32 } %4, 0
  call void @__clang_call_terminate(ptr %5) #20
  unreachable

lpad2:                                            ; preds = %if.then
  %6 = landingpad { ptr, i32 }
          cleanup
  call void @_ZN4cvc58internal12NodeTemplateILb1EED2Ev(ptr noundef nonnull align 8 dereferenceable(8) %ref.tmp) #18
  resume { ptr, i32 } %6

if.end:                                           ; preds = %if.then13.i.i, %if.then.i.i, %invoke.cont3, %entry
  %d_im = getelementptr inbounds i8, ptr %this, i64 968
  %7 = load ptr, ptr %d_im, align 8
  %call = call noundef zeroext i1 @_ZN4cvc58internal6theory22TheoryInferenceManager12trustedLemmaERKNS0_9TrustNodeENS1_11InferenceIdENS1_13LemmaPropertyE(ptr noundef nonnull align 8 dereferenceable(256) %7, ptr noundef nonnull align 8 dereferenceable(24) %trn, i32 noundef %id, i32 noundef 0)
  ret void
}